; Function Attrs: mustprogress uwtable
define void @_ZN17grpc_event_engine12experimental22WorkStealingThreadPool10WorkSignal6SignalEv(ptr noundef nonnull align 8 dereferenceable(16) %this) local_unnamed_addr #3 align 2 personality ptr @__gxx_personality_v0 {
entry:
  tail call void @_ZN4absl12lts_202308025Mutex4LockEv(ptr noundef nonnull align 8 dereferenceable(8) %this)
  %cv_ = getelementptr inbounds i8, ptr %this, i64 8
  invoke void @_ZN4absl12lts_202308027CondVar6SignalEv(ptr noundef nonnull align 8 dereferenceable(8) %cv_)
          to label %invoke.cont unwind label %lpad

invoke.cont:                                      ; preds = %entry
  invoke void @_ZN4absl12lts_202308025Mutex6UnlockEv(ptr noundef nonnull align 8 dereferenceable(8) %this)
          to label %_ZN4absl12lts_202308029MutexLockD2Ev.exit unwind label %terminate.lpad.i

terminate.lpad.i:                                 ; preds = %invoke.cont
  %0 = landingpad { ptr, i32 }
          catch ptr null
  %1 = extractvalue { ptr, i32 } %0, 0
  tail call void @__clang_call_terminate(ptr %1) #24
  unreachable

_ZN4absl12lts_202308029MutexLockD2Ev.exit:        ; preds = %invoke.cont
  ret void

lpad:                                             ; preds = %entry
  %2 = landingpad { ptr, i32 }
          cleanup
  invoke void @_ZN4absl12lts_202308025Mutex6UnlockEv(ptr noundef nonnull align 8 dereferenceable(8) %this)
          to label %_ZN4absl12lts_202308029MutexLockD2Ev.exit2 unwind label %terminate.lpad.i1

terminate.lpad.i1:                                ; preds = %lpad
  %3 = landingpad { ptr, i32 }
          catch ptr null
  %4 = extractvalue { ptr, i32 } %3, 0
  tail call void @__clang_call_terminate(ptr %4) #24
  unreachable

_ZN4absl12lts_202308029MutexLockD2Ev.exit2:       ; preds = %lpad
  resume { ptr, i32 } %2
}